target datalayout = "e-m:e-p270:32:32-p271:32:32-p272:64:64-i64:64-i128:128-f80:128-n8:16:32:64-S128"
target triple = "x86_64-pc-linux-gnu"

%"struct.vcpkg::StringView" = type { ptr, i64 }
%"struct.vcpkg::ParsedExternalVersion" = type { %"struct.vcpkg::StringView", %"struct.vcpkg::StringView", %"struct.vcpkg::StringView" }

; Function Attrs: mustprogress nounwind uwtable
define linkonce_odr dso_local void @_ZN5vcpkg10StringViewC2EPKcS2_(ptr noundef nonnull align 8 dereferenceable(16) %0, ptr noundef %1, ptr noundef %2) unnamed_addr #0 comdat align 2 {
  %4 = alloca ptr, align 8
  %5 = alloca ptr, align 8
  %6 = alloca ptr, align 8
  store ptr %0, ptr %4, align 8
  store ptr %1, ptr %5, align 8
  store ptr %2, ptr %6, align 8
  %7 = load ptr, ptr %4, align 8
  %8 = getelementptr inbounds %"struct.vcpkg::StringView", ptr %7, i32 0, i32 0
  %9 = load ptr, ptr %5, align 8
  store ptr %9, ptr %8, align 8
  %10 = getelementptr inbounds %"struct.vcpkg::StringView", ptr %7, i32 0, i32 1
  %11 = load ptr, ptr %6, align 8
  %12 = load ptr, ptr %5, align 8
  %13 = ptrtoint ptr %11 to i64
  %14 = ptrtoint ptr %12 to i64
  %15 = sub i64 %13, %14
  store i64 %15, ptr %10, align 8
  ret void
}

; Function Attrs: mustprogress nounwind uwtable
define linkonce_odr dso_local noundef zeroext i1 @_ZN5vcpkg10ParserBase14is_ascii_digitEDi(i32 noundef zeroext %0) #0 comdat align 2 {
  %2 = alloca i32, align 4
  store i32 %0, ptr %2, align 4
  %3 = load i32, ptr %2, align 4
  %4 = icmp uge i32 %3, 48
  br i1 %4, label %5, label %8

5:                                                ; preds = %1
  %6 = load i32, ptr %2, align 4
  %7 = icmp ule i32 %6, 57
  br label %8

8:                                                ; preds = %5, %1
  %9 = phi i1 [ false, %1 ], [ %7, %5 ]
  ret i1 %9
}

; Function Attrs: mustprogress nounwind uwtable
define linkonce_odr dso_local noundef ptr @_ZNK5vcpkg10StringView5beginEv(ptr noundef nonnull align 8 dereferenceable(16) %0) #0 comdat align 2 {
  %2 = alloca ptr, align 8
  store ptr %0, ptr %2, align 8
  %3 = load ptr, ptr %2, align 8
  %4 = getelementptr inbounds %"struct.vcpkg::StringView", ptr %3, i32 0, i32 0
  %5 = load ptr, ptr %4, align 8
  ret ptr %5
}

; Function Attrs: mustprogress nounwind uwtable
define linkonce_odr dso_local noundef i64 @_ZNK5vcpkg10StringView4sizeEv(ptr noundef nonnull align 8 dereferenceable(16) %0) #0 comdat align 2 {
  %2 = alloca ptr, align 8
  store ptr %0, ptr %2, align 8
  %3 = load ptr, ptr %2, align 8
  %4 = getelementptr inbounds %"struct.vcpkg::StringView", ptr %3, i32 0, i32 1
  %5 = load i64, ptr %4, align 8
  ret i64 %5
}

; Function Attrs: mustprogress uwtable
define dso_local noundef zeroext i1 @_ZN5vcpkg33try_extract_external_date_versionERNS_21ParsedExternalVersionENS_10StringViewE(ptr noundef nonnull align 8 dereferenceable(48) %0, ptr %1, i64 %2) #2 {
  %4 = alloca i1, align 1
  %5 = alloca %"struct.vcpkg::StringView", align 8
  %6 = alloca ptr, align 8
  %7 = alloca ptr, align 8
  %8 = alloca %"struct.vcpkg::StringView", align 8
  %9 = alloca %"struct.vcpkg::StringView", align 8
  %10 = alloca %"struct.vcpkg::StringView", align 8
  %11 = getelementptr inbounds { ptr, i64 }, ptr %5, i32 0, i32 0
  store ptr %1, ptr %11, align 8
  %12 = getelementptr inbounds { ptr, i64 }, ptr %5, i32 0, i32 1
  store i64 %2, ptr %12, align 8
  store ptr %0, ptr %6, align 8
  %13 = call noundef i64 @_ZNK5vcpkg10StringView4sizeEv(ptr noundef nonnull align 8 dereferenceable(16) %5) #13
  %14 = icmp ult i64 %13, 10
  br i1 %14, label %15, label %16

15:                                               ; preds = %3
  store i1 false, ptr %4, align 1
  br label %106

16:                                               ; preds = %3
  %17 = call noundef ptr @_ZNK5vcpkg10StringView5beginEv(ptr noundef nonnull align 8 dereferenceable(16) %5) #13
  store ptr %17, ptr %7, align 8
  %18 = load ptr, ptr %7, align 8
  %19 = getelementptr inbounds i8, ptr %18, i32 1
  store ptr %19, ptr %7, align 8
  %20 = load i8, ptr %18, align 1
  %21 = sext i8 %20 to i32
  %22 = call noundef zeroext i1 @_ZN5vcpkg10ParserBase14is_ascii_digitEDi(i32 noundef zeroext %21)
  br i1 %22, label %24, label %23

23:                                               ; preds = %16
  store i1 false, ptr %4, align 1
  br label %106

24:                                               ; preds = %16
  %25 = load ptr, ptr %7, align 8
  %26 = getelementptr inbounds i8, ptr %25, i32 1
  store ptr %26, ptr %7, align 8
  %27 = load i8, ptr %25, align 1
  %28 = sext i8 %27 to i32
  %29 = call noundef zeroext i1 @_ZN5vcpkg10ParserBase14is_ascii_digitEDi(i32 noundef zeroext %28)
  br i1 %29, label %31, label %30

30:                                               ; preds = %24
  store i1 false, ptr %4, align 1
  br label %106

31:                                               ; preds = %24
  %32 = load ptr, ptr %7, align 8
  %33 = getelementptr inbounds i8, ptr %32, i32 1
  store ptr %33, ptr %7, align 8
  %34 = load i8, ptr %32, align 1
  %35 = sext i8 %34 to i32
  %36 = call noundef zeroext i1 @_ZN5vcpkg10ParserBase14is_ascii_digitEDi(i32 noundef zeroext %35)
  br i1 %36, label %38, label %37

37:                                               ; preds = %31
  store i1 false, ptr %4, align 1
  br label %106

38:                                               ; preds = %31
  %39 = load ptr, ptr %7, align 8
  %40 = getelementptr inbounds i8, ptr %39, i32 1
  store ptr %40, ptr %7, align 8
  %41 = load i8, ptr %39, align 1
  %42 = sext i8 %41 to i32
  %43 = call noundef zeroext i1 @_ZN5vcpkg10ParserBase14is_ascii_digitEDi(i32 noundef zeroext %42)
  br i1 %43, label %45, label %44

44:                                               ; preds = %38
  store i1 false, ptr %4, align 1
  br label %106

45:                                               ; preds = %38
  %46 = load ptr, ptr %7, align 8
  %47 = getelementptr inbounds i8, ptr %46, i32 1
  store ptr %47, ptr %7, align 8
  %48 = load i8, ptr %46, align 1
  %49 = sext i8 %48 to i32
  %50 = icmp ne i32 %49, 45
  br i1 %50, label %51, label %52

51:                                               ; preds = %45
  store i1 false, ptr %4, align 1
  br label %106

52:                                               ; preds = %45
  %53 = load ptr, ptr %7, align 8
  %54 = getelementptr inbounds i8, ptr %53, i32 1
  store ptr %54, ptr %7, align 8
  %55 = load i8, ptr %53, align 1
  %56 = sext i8 %55 to i32
  %57 = call noundef zeroext i1 @_ZN5vcpkg10ParserBase14is_ascii_digitEDi(i32 noundef zeroext %56)
  br i1 %57, label %59, label %58

58:                                               ; preds = %52
  store i1 false, ptr %4, align 1
  br label %106

59:                                               ; preds = %52
  %60 = load ptr, ptr %7, align 8
  %61 = getelementptr inbounds i8, ptr %60, i32 1
  store ptr %61, ptr %7, align 8
  %62 = load i8, ptr %60, align 1
  %63 = sext i8 %62 to i32
  %64 = call noundef zeroext i1 @_ZN5vcpkg10ParserBase14is_ascii_digitEDi(i32 noundef zeroext %63)
  br i1 %64, label %66, label %65

65:                                               ; preds = %59
  store i1 false, ptr %4, align 1
  br label %106

66:                                               ; preds = %59
  %67 = load ptr, ptr %7, align 8
  %68 = getelementptr inbounds i8, ptr %67, i32 1
  store ptr %68, ptr %7, align 8
  %69 = load i8, ptr %67, align 1
  %70 = sext i8 %69 to i32
  %71 = icmp ne i32 %70, 45
  br i1 %71, label %72, label %73

72:                                               ; preds = %66
  store i1 false, ptr %4, align 1
  br label %106

73:                                               ; preds = %66
  %74 = load ptr, ptr %7, align 8
  %75 = getelementptr inbounds i8, ptr %74, i32 1
  store ptr %75, ptr %7, align 8
  %76 = load i8, ptr %74, align 1
  %77 = sext i8 %76 to i32
  %78 = call noundef zeroext i1 @_ZN5vcpkg10ParserBase14is_ascii_digitEDi(i32 noundef zeroext %77)
  br i1 %78, label %80, label %79

79:                                               ; preds = %73
  store i1 false, ptr %4, align 1
  br label %106

80:                                               ; preds = %73
  %81 = load ptr, ptr %7, align 8
  %82 = getelementptr inbounds i8, ptr %81, i32 1
  store ptr %82, ptr %7, align 8
  %83 = load i8, ptr %81, align 1
  %84 = sext i8 %83 to i32
  %85 = call noundef zeroext i1 @_ZN5vcpkg10ParserBase14is_ascii_digitEDi(i32 noundef zeroext %84)
  br i1 %85, label %87, label %86

86:                                               ; preds = %80
  store i1 false, ptr %4, align 1
  br label %106

87:                                               ; preds = %80
  %88 = call noundef ptr @_ZNK5vcpkg10StringView5beginEv(ptr noundef nonnull align 8 dereferenceable(16) %5) #13
  store ptr %88, ptr %7, align 8
  %89 = load ptr, ptr %7, align 8
  %90 = load ptr, ptr %7, align 8
  %91 = getelementptr inbounds i8, ptr %90, i64 4
  call void @_ZN5vcpkg10StringViewC2EPKcS2_(ptr noundef nonnull align 8 dereferenceable(16) %8, ptr noundef %89, ptr noundef %91) #13
  %92 = load ptr, ptr %6, align 8
  %93 = getelementptr inbounds %"struct.vcpkg::ParsedExternalVersion", ptr %92, i32 0, i32 0
  call void @llvm.memcpy.p0.p0.i64(ptr align 8 %93, ptr align 8 %8, i64 16, i1 false)
  %94 = load ptr, ptr %7, align 8
  %95 = getelementptr inbounds i8, ptr %94, i64 5
  %96 = load ptr, ptr %7, align 8
  %97 = getelementptr inbounds i8, ptr %96, i64 7
  call void @_ZN5vcpkg10StringViewC2EPKcS2_(ptr noundef nonnull align 8 dereferenceable(16) %9, ptr noundef %95, ptr noundef %97) #13
  %98 = load ptr, ptr %6, align 8
  %99 = getelementptr inbounds %"struct.vcpkg::ParsedExternalVersion", ptr %98, i32 0, i32 1
  call void @llvm.memcpy.p0.p0.i64(ptr align 8 %99, ptr align 8 %9, i64 16, i1 false)
  %100 = load ptr, ptr %7, align 8
  %101 = getelementptr inbounds i8, ptr %100, i64 8
  %102 = load ptr, ptr %7, align 8
  %103 = getelementptr inbounds i8, ptr %102, i64 10
  call void @_ZN5vcpkg10StringViewC2EPKcS2_(ptr noundef nonnull align 8 dereferenceable(16) %10, ptr noundef %101, ptr noundef %103) #13
  %104 = load ptr, ptr %6, align 8
  %105 = getelementptr inbounds %"struct.vcpkg::ParsedExternalVersion", ptr %104, i32 0, i32 2
  call void @llvm.memcpy.p0.p0.i64(ptr align 8 %105, ptr align 8 %10, i64 16, i1 false)
  store i1 true, ptr %4, align 1
  br label %106

106:                                              ; preds = %87, %86, %79, %72, %65, %58, %51, %44, %37, %30, %23, %15
  %107 = load i1, ptr %4, align 1
  ret i1 %107
}