; Function Attrs: mustprogress nofree norecurse nosync nounwind willreturn memory(argmem: readwrite) uwtable
define dso_local noundef zeroext i1 @_ZN5vcpkg33try_extract_external_date_versionERNS_21ParsedExternalVersionENS_10StringViewE(ptr nocapture noundef nonnull writeonly align 8 dereferenceable(48) %0, ptr %1, i64 %2) local_unnamed_addr #7 {
  %4 = icmp ult i64 %2, 10
  br i1 %4, label %61, label %5

5:                                                ; preds = %3
  %6 = load i8, ptr %1, align 1
  %7 = sext i8 %6 to i32
  %8 = add nsw i32 %7, -48
  %9 = icmp ult i32 %8, 10
  br i1 %9, label %10, label %61

10:                                               ; preds = %5
  %11 = getelementptr inbounds i8, ptr %1, i64 1
  %12 = load i8, ptr %11, align 1
  %13 = sext i8 %12 to i32
  %14 = add nsw i32 %13, -48
  %15 = icmp ult i32 %14, 10
  br i1 %15, label %16, label %61

16:                                               ; preds = %10
  %17 = getelementptr inbounds i8, ptr %1, i64 2
  %18 = load i8, ptr %17, align 1
  %19 = sext i8 %18 to i32
  %20 = add nsw i32 %19, -48
  %21 = icmp ult i32 %20, 10
  br i1 %21, label %22, label %61

22:                                               ; preds = %16
  %23 = getelementptr inbounds i8, ptr %1, i64 3
  %24 = load i8, ptr %23, align 1
  %25 = sext i8 %24 to i32
  %26 = add nsw i32 %25, -48
  %27 = icmp ult i32 %26, 10
  br i1 %27, label %28, label %61

28:                                               ; preds = %22
  %29 = getelementptr inbounds i8, ptr %1, i64 4
  %30 = load i8, ptr %29, align 1
  %.not = icmp eq i8 %30, 45
  br i1 %.not, label %31, label %61

31:                                               ; preds = %28
  %32 = getelementptr inbounds i8, ptr %1, i64 5
  %33 = load i8, ptr %32, align 1
  %34 = sext i8 %33 to i32
  %35 = add nsw i32 %34, -48
  %36 = icmp ult i32 %35, 10
  br i1 %36, label %37, label %61

37:                                               ; preds = %31
  %38 = getelementptr inbounds i8, ptr %1, i64 6
  %39 = load i8, ptr %38, align 1
  %40 = sext i8 %39 to i32
  %41 = add nsw i32 %40, -48
  %42 = icmp ult i32 %41, 10
  br i1 %42, label %43, label %61

43:                                               ; preds = %37
  %44 = getelementptr inbounds i8, ptr %1, i64 7
  %45 = load i8, ptr %44, align 1
  %.not20 = icmp eq i8 %45, 45
  br i1 %.not20, label %46, label %61

46:                                               ; preds = %43
  %47 = getelementptr inbounds i8, ptr %1, i64 8
  %48 = load i8, ptr %47, align 1
  %49 = sext i8 %48 to i32
  %50 = add nsw i32 %49, -48
  %51 = icmp ult i32 %50, 10
  br i1 %51, label %52, label %61

52:                                               ; preds = %46
  %53 = getelementptr inbounds i8, ptr %1, i64 9
  %54 = load i8, ptr %53, align 1
  %55 = sext i8 %54 to i32
  %56 = add nsw i32 %55, -48
  %57 = icmp ult i32 %56, 10
  br i1 %57, label %58, label %61

58:                                               ; preds = %52
  store ptr %1, ptr %0, align 8
  %.sroa.224.0..sroa_idx = getelementptr inbounds i8, ptr %0, i64 8
  store i64 4, ptr %.sroa.224.0..sroa_idx, align 8
  %59 = getelementptr inbounds i8, ptr %0, i64 16
  store ptr %32, ptr %59, align 8
  %.sroa.222.0..sroa_idx = getelementptr inbounds i8, ptr %0, i64 24
  store i64 2, ptr %.sroa.222.0..sroa_idx, align 8
  %60 = getelementptr inbounds i8, ptr %0, i64 32
  store ptr %47, ptr %60, align 8
  %.sroa.2.0..sroa_idx = getelementptr inbounds i8, ptr %0, i64 40
  store i64 2, ptr %.sroa.2.0..sroa_idx, align 8
  br label %61

61:                                               ; preds = %52, %46, %43, %37, %31, %28, %22, %16, %10, %5, %3, %58
  %.0 = phi i1 [ true, %58 ], [ false, %3 ], [ false, %5 ], [ false, %10 ], [ false, %16 ], [ false, %22 ], [ false, %28 ], [ false, %31 ], [ false, %37 ], [ false, %43 ], [ false, %46 ], [ false, %52 ]
  ret i1 %.0
}